; Function Attrs: nounwind uwtable
define ptr @l_Lean_Server_FileWorker_queueRequest___lambda__1(ptr noundef %0, ptr noundef %1, ptr noundef %2) #0 {
  %4 = tail call zeroext i8 @l_Lean_RBNode_isRed___rarg(ptr noundef %2) #7
  %5 = icmp eq i8 %4, 0
  %6 = tail call ptr @l_Lean_RBNode_ins___at_Lean_Server_FileWorker_queueRequest___spec__2(ptr noundef %2, ptr noundef %0, ptr noundef %1)
  br i1 %5, label %l_Lean_RBNode_insert___at_Lean_Server_FileWorker_queueRequest___spec__1.exit, label %7

7:                                                ; preds = %3
  %8 = tail call ptr @l_Lean_RBNode_setBlack___rarg(ptr noundef %6) #7
  br label %l_Lean_RBNode_insert___at_Lean_Server_FileWorker_queueRequest___spec__1.exit

l_Lean_RBNode_insert___at_Lean_Server_FileWorker_queueRequest___spec__1.exit: ; preds = %3, %7
  %.0.i = phi ptr [ %8, %7 ], [ %6, %3 ]
  ret ptr %.0.i
}